target datalayout = "e-m:e-p270:32:32-p271:32:32-p272:64:64-i64:64-i128:128-f80:128-n8:16:32:64-S128"
target triple = "x86_64-unknown-linux-gnu"

%class.btGImpactCollisionAlgorithm = type { %class.btActivatingCollisionAlgorithm, ptr, ptr, ptr, ptr, i32, i32, i32, i32 }
%class.btActivatingCollisionAlgorithm = type { %class.btCollisionAlgorithm }
%class.btCollisionAlgorithm = type { ptr, ptr }
%struct.btCollisionObjectWrapper = type { ptr, ptr, ptr, ptr, ptr, i32, i32 }
%class.btManifoldResult = type <{ %"struct.btDiscreteCollisionDetectorInterface::Result", ptr, ptr, ptr, i32, i32, i32, i32, float, [4 x i8] }>
%"struct.btDiscreteCollisionDetectorInterface::Result" = type { ptr }

; Function Attrs: mustprogress nounwind uwtable
define linkonce_odr dso_local void @_ZN16btManifoldResult21setPersistentManifoldEP20btPersistentManifold(ptr noundef nonnull align 8 dereferenceable(52) %this, ptr noundef %manifoldPtr) #1 comdat align 2 {
entry:
  %this.addr = alloca ptr, align 8
  %manifoldPtr.addr = alloca ptr, align 8
  store ptr %this, ptr %this.addr, align 8
  store ptr %manifoldPtr, ptr %manifoldPtr.addr, align 8
  %this1 = load ptr, ptr %this.addr, align 8
  %0 = load ptr, ptr %manifoldPtr.addr, align 8
  %m_manifoldPtr = getelementptr inbounds %class.btManifoldResult, ptr %this1, i32 0, i32 1
  store ptr %0, ptr %m_manifoldPtr, align 8
  ret void
}

; Function Attrs: mustprogress uwtable
define linkonce_odr dso_local noundef ptr @_ZN27btGImpactCollisionAlgorithm18newContactManifoldEPK17btCollisionObjectS2_(ptr noundef nonnull align 8 dereferenceable(64) %this, ptr noundef %body0, ptr noundef %body1) #2 comdat align 2 {
entry:
  %this.addr = alloca ptr, align 8
  %body0.addr = alloca ptr, align 8
  %body1.addr = alloca ptr, align 8
  store ptr %this, ptr %this.addr, align 8
  store ptr %body0, ptr %body0.addr, align 8
  store ptr %body1, ptr %body1.addr, align 8
  %this1 = load ptr, ptr %this.addr, align 8
  %m_dispatcher = getelementptr inbounds %class.btCollisionAlgorithm, ptr %this1, i32 0, i32 1
  %0 = load ptr, ptr %m_dispatcher, align 8
  %1 = load ptr, ptr %body0.addr, align 8
  %2 = load ptr, ptr %body1.addr, align 8
  %vtable = load ptr, ptr %0, align 8
  %vfn = getelementptr inbounds ptr, ptr %vtable, i64 3
  %3 = load ptr, ptr %vfn, align 8
  %call = call noundef ptr %3(ptr noundef nonnull align 8 dereferenceable(8) %0, ptr noundef %1, ptr noundef %2)
  %m_manifoldPtr = getelementptr inbounds %class.btGImpactCollisionAlgorithm, ptr %this1, i32 0, i32 2
  store ptr %call, ptr %m_manifoldPtr, align 8
  %m_manifoldPtr2 = getelementptr inbounds %class.btGImpactCollisionAlgorithm, ptr %this1, i32 0, i32 2
  %4 = load ptr, ptr %m_manifoldPtr2, align 8
  ret ptr %4
}

; Function Attrs: mustprogress nounwind uwtable
define linkonce_odr dso_local noundef ptr @_ZNK24btCollisionObjectWrapper18getCollisionObjectEv(ptr noundef nonnull align 8 dereferenceable(48) %this) #1 comdat align 2 {
entry:
  %this.addr = alloca ptr, align 8
  store ptr %this, ptr %this.addr, align 8
  %this1 = load ptr, ptr %this.addr, align 8
  %m_collisionObject = getelementptr inbounds %struct.btCollisionObjectWrapper, ptr %this1, i32 0, i32 2
  %0 = load ptr, ptr %m_collisionObject, align 8
  ret ptr %0
}

; Function Attrs: mustprogress nounwind uwtable
define linkonce_odr dso_local noundef ptr @_ZN27btGImpactCollisionAlgorithm15getLastManifoldEv(ptr noundef nonnull align 8 dereferenceable(64) %this) #1 comdat align 2 {
entry:
  %this.addr = alloca ptr, align 8
  store ptr %this, ptr %this.addr, align 8
  %this1 = load ptr, ptr %this.addr, align 8
  %m_manifoldPtr = getelementptr inbounds %class.btGImpactCollisionAlgorithm, ptr %this1, i32 0, i32 2
  %0 = load ptr, ptr %m_manifoldPtr, align 8
  ret ptr %0
}

; Function Attrs: mustprogress uwtable
define linkonce_odr dso_local void @_ZN27btGImpactCollisionAlgorithm13checkManifoldEPK24btCollisionObjectWrapperS2_(ptr noundef nonnull align 8 dereferenceable(64) %this, ptr noundef %body0Wrap, ptr noundef %body1Wrap) #2 comdat align 2 {
entry:
  %this.addr = alloca ptr, align 8
  %body0Wrap.addr = alloca ptr, align 8
  %body1Wrap.addr = alloca ptr, align 8
  store ptr %this, ptr %this.addr, align 8
  store ptr %body0Wrap, ptr %body0Wrap.addr, align 8
  store ptr %body1Wrap, ptr %body1Wrap.addr, align 8
  %this1 = load ptr, ptr %this.addr, align 8
  %call = call noundef ptr @_ZN27btGImpactCollisionAlgorithm15getLastManifoldEv(ptr noundef nonnull align 8 dereferenceable(64) %this1)
  %cmp = icmp eq ptr %call, null
  br i1 %cmp, label %if.then, label %if.end

if.then:                                          ; preds = %entry
  %0 = load ptr, ptr %body0Wrap.addr, align 8
  %call2 = call noundef ptr @_ZNK24btCollisionObjectWrapper18getCollisionObjectEv(ptr noundef nonnull align 8 dereferenceable(48) %0)
  %1 = load ptr, ptr %body1Wrap.addr, align 8
  %call3 = call noundef ptr @_ZNK24btCollisionObjectWrapper18getCollisionObjectEv(ptr noundef nonnull align 8 dereferenceable(48) %1)
  %call4 = call noundef ptr @_ZN27btGImpactCollisionAlgorithm18newContactManifoldEPK17btCollisionObjectS2_(ptr noundef nonnull align 8 dereferenceable(64) %this1, ptr noundef %call2, ptr noundef %call3)
  br label %if.end

if.end:                                           ; preds = %if.then, %entry
  %m_resultOut = getelementptr inbounds %class.btGImpactCollisionAlgorithm, ptr %this1, i32 0, i32 3
  %2 = load ptr, ptr %m_resultOut, align 8
  %call5 = call noundef ptr @_ZN27btGImpactCollisionAlgorithm15getLastManifoldEv(ptr noundef nonnull align 8 dereferenceable(64) %this1)
  call void @_ZN16btManifoldResult21setPersistentManifoldEP20btPersistentManifold(ptr noundef nonnull align 8 dereferenceable(52) %2, ptr noundef %call5)
  ret void
}

; Function Attrs: mustprogress uwtable
define dso_local void @_ZN27btGImpactCollisionAlgorithm15addContactPointEPK24btCollisionObjectWrapperS2_RK9btVector3S5_f(ptr noundef nonnull align 8 dereferenceable(64) %this, ptr noundef %body0Wrap, ptr noundef %body1Wrap, ptr noundef nonnull align 4 dereferenceable(16) %point, ptr noundef nonnull align 4 dereferenceable(16) %normal, float noundef %distance) #2 align 2 {
entry:
  %this.addr = alloca ptr, align 8
  %body0Wrap.addr = alloca ptr, align 8
  %body1Wrap.addr = alloca ptr, align 8
  %point.addr = alloca ptr, align 8
  %normal.addr = alloca ptr, align 8
  %distance.addr = alloca float, align 4
  store ptr %this, ptr %this.addr, align 8
  store ptr %body0Wrap, ptr %body0Wrap.addr, align 8
  store ptr %body1Wrap, ptr %body1Wrap.addr, align 8
  store ptr %point, ptr %point.addr, align 8
  store ptr %normal, ptr %normal.addr, align 8
  store float %distance, ptr %distance.addr, align 4
  %this1 = load ptr, ptr %this.addr, align 8
  %m_resultOut = getelementptr inbounds %class.btGImpactCollisionAlgorithm, ptr %this1, i32 0, i32 3
  %0 = load ptr, ptr %m_resultOut, align 8
  %m_part0 = getelementptr inbounds %class.btGImpactCollisionAlgorithm, ptr %this1, i32 0, i32 6
  %1 = load i32, ptr %m_part0, align 4
  %m_triface0 = getelementptr inbounds %class.btGImpactCollisionAlgorithm, ptr %this1, i32 0, i32 5
  %2 = load i32, ptr %m_triface0, align 8
  %vtable = load ptr, ptr %0, align 8
  %vfn = getelementptr inbounds ptr, ptr %vtable, i64 2
  %3 = load ptr, ptr %vfn, align 8
  call void %3(ptr noundef nonnull align 8 dereferenceable(52) %0, i32 noundef %1, i32 noundef %2)
  %m_resultOut2 = getelementptr inbounds %class.btGImpactCollisionAlgorithm, ptr %this1, i32 0, i32 3
  %4 = load ptr, ptr %m_resultOut2, align 8
  %m_part1 = getelementptr inbounds %class.btGImpactCollisionAlgorithm, ptr %this1, i32 0, i32 8
  %5 = load i32, ptr %m_part1, align 4
  %m_triface1 = getelementptr inbounds %class.btGImpactCollisionAlgorithm, ptr %this1, i32 0, i32 7
  %6 = load i32, ptr %m_triface1, align 8
  %vtable3 = load ptr, ptr %4, align 8
  %vfn4 = getelementptr inbounds ptr, ptr %vtable3, i64 3
  %7 = load ptr, ptr %vfn4, align 8
  call void %7(ptr noundef nonnull align 8 dereferenceable(52) %4, i32 noundef %5, i32 noundef %6)
  %8 = load ptr, ptr %body0Wrap.addr, align 8
  %9 = load ptr, ptr %body1Wrap.addr, align 8
  call void @_ZN27btGImpactCollisionAlgorithm13checkManifoldEPK24btCollisionObjectWrapperS2_(ptr noundef nonnull align 8 dereferenceable(64) %this1, ptr noundef %8, ptr noundef %9)
  %m_resultOut5 = getelementptr inbounds %class.btGImpactCollisionAlgorithm, ptr %this1, i32 0, i32 3
  %10 = load ptr, ptr %m_resultOut5, align 8
  %11 = load ptr, ptr %normal.addr, align 8
  %12 = load ptr, ptr %point.addr, align 8
  %13 = load float, ptr %distance.addr, align 4
  %vtable6 = load ptr, ptr %10, align 8
  %vfn7 = getelementptr inbounds ptr, ptr %vtable6, i64 4
  %14 = load ptr, ptr %vfn7, align 8
  call void %14(ptr noundef nonnull align 8 dereferenceable(52) %10, ptr noundef nonnull align 4 dereferenceable(16) %11, ptr noundef nonnull align 4 dereferenceable(16) %12, float noundef %13)
  ret void
}