; Function Attrs: mustprogress uwtable
define dso_local void @_ZN27btGImpactCollisionAlgorithm15addContactPointEPK24btCollisionObjectWrapperS2_RK9btVector3S5_f(ptr nocapture noundef nonnull align 8 dereferenceable(64) %this, ptr nocapture noundef readonly %body0Wrap, ptr nocapture noundef readonly %body1Wrap, ptr noundef nonnull align 4 dereferenceable(16) %point, ptr noundef nonnull align 4 dereferenceable(16) %normal, float noundef %distance) local_unnamed_addr #0 align 2 {
entry:
  %m_resultOut = getelementptr inbounds i8, ptr %this, i64 32
  %0 = load ptr, ptr %m_resultOut, align 8
  %m_part0 = getelementptr inbounds i8, ptr %this, i64 52
  %1 = load i32, ptr %m_part0, align 4
  %m_triface0 = getelementptr inbounds i8, ptr %this, i64 48
  %2 = load i32, ptr %m_triface0, align 8
  %vtable = load ptr, ptr %0, align 8
  %vfn = getelementptr inbounds i8, ptr %vtable, i64 16
  %3 = load ptr, ptr %vfn, align 8
  tail call void %3(ptr noundef nonnull align 8 dereferenceable(52) %0, i32 noundef %1, i32 noundef %2)
  %4 = load ptr, ptr %m_resultOut, align 8
  %m_part1 = getelementptr inbounds i8, ptr %this, i64 60
  %5 = load i32, ptr %m_part1, align 4
  %m_triface1 = getelementptr inbounds i8, ptr %this, i64 56
  %6 = load i32, ptr %m_triface1, align 8
  %vtable3 = load ptr, ptr %4, align 8
  %vfn4 = getelementptr inbounds i8, ptr %vtable3, i64 24
  %7 = load ptr, ptr %vfn4, align 8
  tail call void %7(ptr noundef nonnull align 8 dereferenceable(52) %4, i32 noundef %5, i32 noundef %6)
  %m_manifoldPtr.i.i = getelementptr inbounds i8, ptr %this, i64 24
  %8 = load ptr, ptr %m_manifoldPtr.i.i, align 8
  %cmp.i = icmp eq ptr %8, null
  br i1 %cmp.i, label %if.then.i, label %_ZN27btGImpactCollisionAlgorithm13checkManifoldEPK24btCollisionObjectWrapperS2_.exit

if.then.i:                                        ; preds = %entry
  %m_collisionObject.i.i = getelementptr inbounds i8, ptr %body0Wrap, i64 16
  %9 = load ptr, ptr %m_collisionObject.i.i, align 8
  %m_collisionObject.i1.i = getelementptr inbounds i8, ptr %body1Wrap, i64 16
  %10 = load ptr, ptr %m_collisionObject.i1.i, align 8
  %m_dispatcher.i.i = getelementptr inbounds i8, ptr %this, i64 8
  %11 = load ptr, ptr %m_dispatcher.i.i, align 8
  %vtable.i.i = load ptr, ptr %11, align 8
  %vfn.i.i = getelementptr inbounds i8, ptr %vtable.i.i, i64 24
  %12 = load ptr, ptr %vfn.i.i, align 8
  %call.i.i = tail call noundef ptr %12(ptr noundef nonnull align 8 dereferenceable(8) %11, ptr noundef %9, ptr noundef %10)
  store ptr %call.i.i, ptr %m_manifoldPtr.i.i, align 8
  br label %_ZN27btGImpactCollisionAlgorithm13checkManifoldEPK24btCollisionObjectWrapperS2_.exit

_ZN27btGImpactCollisionAlgorithm13checkManifoldEPK24btCollisionObjectWrapperS2_.exit: ; preds = %entry, %if.then.i
  %13 = phi ptr [ %call.i.i, %if.then.i ], [ %8, %entry ]
  %14 = load ptr, ptr %m_resultOut, align 8
  %m_manifoldPtr.i4.i = getelementptr inbounds i8, ptr %14, i64 8
  store ptr %13, ptr %m_manifoldPtr.i4.i, align 8
  %15 = load ptr, ptr %m_resultOut, align 8
  %vtable6 = load ptr, ptr %15, align 8
  %vfn7 = getelementptr inbounds i8, ptr %vtable6, i64 32
  %16 = load ptr, ptr %vfn7, align 8
  tail call void %16(ptr noundef nonnull align 8 dereferenceable(52) %15, ptr noundef nonnull align 4 dereferenceable(16) %normal, ptr noundef nonnull align 4 dereferenceable(16) %point, float noundef %distance)
  ret void
}